; Function Attrs: mustprogress nofree norecurse nosync nounwind willreturn memory(argmem: readwrite) uwtable
define void @_ZN14duckdb_parquet11LogicalType15__set_TIMESTAMPERKNS_13TimestampTypeE(ptr noundef nonnull align 8 captures(none) dereferenceable(234) initializes((128, 129), (168, 169)) %0, ptr noundef nonnull readonly align 8 captures(none) dereferenceable(56) %1) local_unnamed_addr #10 align 2 {
  %3 = getelementptr inbounds nuw i8, ptr %1, i64 8
  %4 = load i8, ptr %3, align 8, !tbaa !198, !range !137, !noundef !138
  %5 = getelementptr inbounds nuw i8, ptr %0, i64 128
  store i8 %4, ptr %5, align 8, !tbaa !198
  %6 = getelementptr inbounds nuw i8, ptr %1, i64 48
  %7 = getelementptr inbounds nuw i8, ptr %0, i64 168
  %8 = load i8, ptr %6, align 8, !tbaa !38
  store i8 %8, ptr %7, align 8, !tbaa !38
  %9 = getelementptr inbounds nuw i8, ptr %0, i64 232
  %10 = load i16, ptr %9, align 8
  %11 = or i16 %10, 128
  store i16 %11, ptr %9, align 8
  ret void
}